target datalayout = "e-m:e-p270:32:32-p271:32:32-p272:64:64-i64:64-i128:128-f80:128-n8:16:32:64-S128"
target triple = "x86_64-pc-linux-gnu"

%struct._object = type { %union.anon, ptr }
%union.anon = type { i64 }
%struct.PyVarObject = type { %struct._object, i64 }
%struct.ast_state = type { %struct._PyOnceFlag, i32, ptr, ptr, ptr, ptr, ptr, ptr, ptr, ptr, ptr, ptr, ptr, ptr, ptr, ptr, ptr, ptr, ptr, ptr, ptr, ptr, ptr, ptr, ptr, ptr, ptr, ptr, ptr, ptr, ptr, ptr, ptr, ptr, ptr, ptr, ptr, ptr, ptr, ptr, ptr, ptr, ptr, ptr, ptr, ptr, ptr, ptr, ptr, ptr, ptr, ptr, ptr, ptr, ptr, ptr, ptr, ptr, ptr, ptr, ptr, ptr, ptr, ptr, ptr, ptr, ptr, ptr, ptr, ptr, ptr, ptr, ptr, ptr, ptr, ptr, ptr, ptr, ptr, ptr, ptr, ptr, ptr, ptr, ptr, ptr, ptr, ptr, ptr, ptr, ptr, ptr, ptr, ptr, ptr, ptr, ptr, ptr, ptr, ptr, ptr, ptr, ptr, ptr, ptr, ptr, ptr, ptr, ptr, ptr, ptr, ptr, ptr, ptr, ptr, ptr, ptr, ptr, ptr, ptr, ptr, ptr, ptr, ptr, ptr, ptr, ptr, ptr, ptr, ptr, ptr, ptr, ptr, ptr, ptr, ptr, ptr, ptr, ptr, ptr, ptr, ptr, ptr, ptr, ptr, ptr, ptr, ptr, ptr, ptr, ptr, ptr, ptr, ptr, ptr, ptr, ptr, ptr, ptr, ptr, ptr, ptr, ptr, ptr, ptr, ptr, ptr, ptr, ptr, ptr, ptr, ptr, ptr, ptr, ptr, ptr, ptr, ptr, ptr, ptr, ptr, ptr, ptr, ptr, ptr, ptr, ptr, ptr, ptr, ptr, ptr, ptr, ptr, ptr, ptr, ptr, ptr, ptr, ptr, ptr, ptr, ptr, ptr, ptr, ptr, ptr, ptr, ptr, ptr, ptr, ptr, ptr, ptr, ptr, ptr, ptr, ptr, ptr, ptr, ptr, ptr, ptr, ptr, ptr, ptr, ptr, ptr, ptr, ptr, ptr, ptr, ptr, ptr, ptr, ptr, ptr, ptr, ptr, ptr, ptr, ptr, ptr, ptr, ptr, ptr }
%struct._PyOnceFlag = type { i8 }
%struct.anon.4 = type { i32, i32 }
%struct._match_case = type { ptr, ptr, ptr }
%struct.validator = type { i32, i32 }
%struct.PyListObject = type { %struct.PyVarObject, ptr, i64 }
%struct.asdl_seq = type { i64, ptr }

@_Py_NoneStruct = external global %struct._object, align 8
@PyExc_RecursionError = external global ptr, align 8
@.str.409 = private unnamed_addr constant [57 x i8] c"maximum recursion depth exceeded during ast construction\00", align 1

; Function Attrs: inlinehint nounwind uwtable
define internal void @PyList_SET_ITEM(ptr noundef %0, i64 noundef %1, ptr noundef %2) #6 {
  %4 = alloca ptr, align 8
  %5 = alloca i64, align 8
  %6 = alloca ptr, align 8
  %7 = alloca ptr, align 8
  store ptr %0, ptr %4, align 8, !tbaa !13
  store i64 %1, ptr %5, align 8, !tbaa !22
  store ptr %2, ptr %6, align 8, !tbaa !13
  call void @llvm.lifetime.start.p0(i64 8, ptr %7) #8
  %8 = load ptr, ptr %4, align 8, !tbaa !13
  store ptr %8, ptr %7, align 8, !tbaa !26
  %9 = load ptr, ptr %6, align 8, !tbaa !13
  %10 = load ptr, ptr %7, align 8, !tbaa !26
  %11 = getelementptr inbounds nuw %struct.PyListObject, ptr %10, i32 0, i32 1
  %12 = load ptr, ptr %11, align 8, !tbaa !165
  %13 = load i64, ptr %5, align 8, !tbaa !22
  %14 = getelementptr ptr, ptr %12, i64 %13
  store ptr %9, ptr %14, align 8, !tbaa !13
  call void @llvm.lifetime.end.p0(i64 8, ptr %7) #8
  ret void
}

; Function Attrs: alwaysinline nounwind uwtable
define internal i32 @_Py_IsImmortal(ptr noundef %0) #2 {
  %2 = alloca ptr, align 8
  store ptr %0, ptr %2, align 8, !tbaa !13
  %3 = load ptr, ptr %2, align 8, !tbaa !13
  %4 = getelementptr inbounds nuw %struct._object, ptr %3, i32 0, i32 0
  %5 = getelementptr inbounds nuw %struct.anon.4, ptr %4, i32 0, i32 0
  %6 = load i32, ptr %5, align 8, !tbaa !21
  %7 = icmp slt i32 %6, 0
  %8 = zext i1 %7 to i32
  ret i32 %8
}

; Function Attrs: inlinehint nounwind uwtable
define internal void @Py_XDECREF(ptr noundef %0) #6 {
  %2 = alloca ptr, align 8
  store ptr %0, ptr %2, align 8, !tbaa !13
  %3 = load ptr, ptr %2, align 8, !tbaa !13
  %4 = icmp ne ptr %3, null
  br i1 %4, label %5, label %7

5:                                                ; preds = %1
  %6 = load ptr, ptr %2, align 8, !tbaa !13
  call void @Py_DECREF(ptr noundef %6)
  br label %7

7:                                                ; preds = %5, %1
  ret void
}

; Function Attrs: nounwind uwtable
define internal ptr @ast2obj_list(ptr noundef %0, ptr noundef %1, ptr noundef %2, ptr noundef %3) #0 {
  %5 = alloca ptr, align 8
  %6 = alloca ptr, align 8
  %7 = alloca ptr, align 8
  %8 = alloca ptr, align 8
  %9 = alloca ptr, align 8
  %10 = alloca i64, align 8
  %11 = alloca i64, align 8
  %12 = alloca ptr, align 8
  %13 = alloca ptr, align 8
  %14 = alloca i32, align 4
  store ptr %0, ptr %6, align 8, !tbaa !9
  store ptr %1, ptr %7, align 8, !tbaa !147
  store ptr %2, ptr %8, align 8, !tbaa !26
  store ptr %3, ptr %9, align 8, !tbaa !26
  call void @llvm.lifetime.start.p0(i64 8, ptr %10) #8
  call void @llvm.lifetime.start.p0(i64 8, ptr %11) #8
  %15 = load ptr, ptr %8, align 8, !tbaa !26
  %16 = icmp eq ptr %15, null
  br i1 %16, label %17, label %18

17:                                               ; preds = %4
  br label %22

18:                                               ; preds = %4
  %19 = load ptr, ptr %8, align 8, !tbaa !26
  %20 = getelementptr inbounds nuw %struct.asdl_seq, ptr %19, i32 0, i32 0
  %21 = load i64, ptr %20, align 8, !tbaa !441
  br label %22

22:                                               ; preds = %18, %17
  %23 = phi i64 [ 0, %17 ], [ %21, %18 ]
  store i64 %23, ptr %11, align 8, !tbaa !22
  call void @llvm.lifetime.start.p0(i64 8, ptr %12) #8
  %24 = load i64, ptr %11, align 8, !tbaa !22
  %25 = call ptr @PyList_New(i64 noundef %24)
  store ptr %25, ptr %12, align 8, !tbaa !13
  call void @llvm.lifetime.start.p0(i64 8, ptr %13) #8
  %26 = load ptr, ptr %12, align 8, !tbaa !13
  %27 = icmp ne ptr %26, null
  br i1 %27, label %29, label %28

28:                                               ; preds = %22
  store ptr null, ptr %5, align 8
  store i32 1, ptr %14, align 4
  br label %58

29:                                               ; preds = %22
  store i64 0, ptr %10, align 8, !tbaa !22
  br label %30

30:                                               ; preds = %53, %29
  %31 = load i64, ptr %10, align 8, !tbaa !22
  %32 = load i64, ptr %11, align 8, !tbaa !22
  %33 = icmp slt i64 %31, %32
  br i1 %33, label %34, label %56

34:                                               ; preds = %30
  %35 = load ptr, ptr %9, align 8, !tbaa !26
  %36 = load ptr, ptr %6, align 8, !tbaa !9
  %37 = load ptr, ptr %7, align 8, !tbaa !147
  %38 = load ptr, ptr %8, align 8, !tbaa !26
  %39 = getelementptr inbounds nuw %struct.asdl_seq, ptr %38, i32 0, i32 1
  %40 = load ptr, ptr %39, align 8, !tbaa !443
  %41 = load i64, ptr %10, align 8, !tbaa !22
  %42 = getelementptr ptr, ptr %40, i64 %41
  %43 = load ptr, ptr %42, align 8, !tbaa !26
  %44 = call ptr %35(ptr noundef %36, ptr noundef %37, ptr noundef %43)
  store ptr %44, ptr %13, align 8, !tbaa !13
  %45 = load ptr, ptr %13, align 8, !tbaa !13
  %46 = icmp ne ptr %45, null
  br i1 %46, label %49, label %47

47:                                               ; preds = %34
  %48 = load ptr, ptr %12, align 8, !tbaa !13
  call void @Py_DECREF(ptr noundef %48)
  store ptr null, ptr %5, align 8
  store i32 1, ptr %14, align 4
  br label %58

49:                                               ; preds = %34
  %50 = load ptr, ptr %12, align 8, !tbaa !13
  %51 = load i64, ptr %10, align 8, !tbaa !22
  %52 = load ptr, ptr %13, align 8, !tbaa !13
  call void @PyList_SET_ITEM(ptr noundef %50, i64 noundef %51, ptr noundef %52)
  br label %53

53:                                               ; preds = %49
  %54 = load i64, ptr %10, align 8, !tbaa !22
  %55 = add i64 %54, 1
  store i64 %55, ptr %10, align 8, !tbaa !22
  br label %30, !llvm.loop !444

56:                                               ; preds = %30
  %57 = load ptr, ptr %12, align 8, !tbaa !13
  store ptr %57, ptr %5, align 8
  store i32 1, ptr %14, align 4
  br label %58

58:                                               ; preds = %56, %47, %28
  call void @llvm.lifetime.end.p0(i64 8, ptr %13) #8
  call void @llvm.lifetime.end.p0(i64 8, ptr %12) #8
  call void @llvm.lifetime.end.p0(i64 8, ptr %11) #8
  call void @llvm.lifetime.end.p0(i64 8, ptr %10) #8
  %59 = load ptr, ptr %5, align 8
  ret ptr %59
}

; Function Attrs: alwaysinline nounwind uwtable
define internal void @Py_DECREF(ptr noundef %0) #2 {
  %2 = alloca ptr, align 8
  store ptr %0, ptr %2, align 8, !tbaa !13
  %3 = load ptr, ptr %2, align 8, !tbaa !13
  %4 = call i32 @_Py_IsImmortal(ptr noundef %3)
  %5 = icmp ne i32 %4, 0
  br i1 %5, label %6, label %7

6:                                                ; preds = %1
  br label %16

7:                                                ; preds = %1
  %8 = load ptr, ptr %2, align 8, !tbaa !13
  %9 = getelementptr inbounds nuw %struct._object, ptr %8, i32 0, i32 0
  %10 = getelementptr inbounds nuw %struct.anon.4, ptr %9, i32 0, i32 0
  %11 = load i32, ptr %10, align 8, !tbaa !21
  %12 = add i32 %11, -1
  store i32 %12, ptr %10, align 8, !tbaa !21
  %13 = icmp eq i32 %12, 0
  br i1 %13, label %14, label %16

14:                                               ; preds = %7
  %15 = load ptr, ptr %2, align 8, !tbaa !13
  call void @_Py_Dealloc(ptr noundef %15)
  br label %16

16:                                               ; preds = %6, %14, %7
  ret void
}

; Function Attrs: nounwind uwtable
define internal ptr @ast2obj_match_case(ptr noundef %0, ptr noundef %1, ptr noundef %2) #0 {
  %4 = alloca ptr, align 8
  %5 = alloca ptr, align 8
  %6 = alloca ptr, align 8
  %7 = alloca ptr, align 8
  %8 = alloca ptr, align 8
  %9 = alloca ptr, align 8
  %10 = alloca ptr, align 8
  %11 = alloca ptr, align 8
  %12 = alloca i32, align 4
  store ptr %0, ptr %5, align 8, !tbaa !9
  store ptr %1, ptr %6, align 8, !tbaa !147
  store ptr %2, ptr %7, align 8, !tbaa !26
  call void @llvm.lifetime.start.p0(i64 8, ptr %8) #8
  %13 = load ptr, ptr %7, align 8, !tbaa !26
  store ptr %13, ptr %8, align 8, !tbaa !111
  call void @llvm.lifetime.start.p0(i64 8, ptr %9) #8
  store ptr null, ptr %9, align 8, !tbaa !13
  call void @llvm.lifetime.start.p0(i64 8, ptr %10) #8
  store ptr null, ptr %10, align 8, !tbaa !13
  call void @llvm.lifetime.start.p0(i64 8, ptr %11) #8
  %14 = load ptr, ptr %8, align 8, !tbaa !111
  %15 = icmp ne ptr %14, null
  br i1 %15, label %17, label %16

16:                                               ; preds = %3
  store ptr @_Py_NoneStruct, ptr %4, align 8
  store i32 1, ptr %12, align 4
  br label %110

17:                                               ; preds = %3
  %18 = load ptr, ptr %6, align 8, !tbaa !147
  %19 = getelementptr inbounds nuw %struct.validator, ptr %18, i32 0, i32 0
  %20 = load i32, ptr %19, align 4, !tbaa !146
  %21 = add i32 %20, 1
  store i32 %21, ptr %19, align 4, !tbaa !146
  %22 = load ptr, ptr %6, align 8, !tbaa !147
  %23 = getelementptr inbounds nuw %struct.validator, ptr %22, i32 0, i32 1
  %24 = load i32, ptr %23, align 4, !tbaa !137
  %25 = icmp sgt i32 %21, %24
  br i1 %25, label %26, label %28

26:                                               ; preds = %17
  %27 = load ptr, ptr @PyExc_RecursionError, align 8, !tbaa !13
  call void @PyErr_SetString(ptr noundef %27, ptr noundef @.str.409)
  store ptr null, ptr %4, align 8
  store i32 1, ptr %12, align 4
  br label %110

28:                                               ; preds = %17
  %29 = load ptr, ptr %5, align 8, !tbaa !9
  %30 = getelementptr inbounds nuw %struct.ast_state, ptr %29, i32 0, i32 205
  %31 = load ptr, ptr %30, align 8, !tbaa !277
  store ptr %31, ptr %11, align 8, !tbaa !150
  %32 = load ptr, ptr %11, align 8, !tbaa !150
  %33 = call ptr @PyType_GenericNew(ptr noundef %32, ptr noundef null, ptr noundef null)
  store ptr %33, ptr %9, align 8, !tbaa !13
  %34 = load ptr, ptr %9, align 8, !tbaa !13
  %35 = icmp ne ptr %34, null
  br i1 %35, label %37, label %36

36:                                               ; preds = %28
  store ptr null, ptr %4, align 8
  store i32 1, ptr %12, align 4
  br label %110

37:                                               ; preds = %28
  %38 = load ptr, ptr %5, align 8, !tbaa !9
  %39 = load ptr, ptr %6, align 8, !tbaa !147
  %40 = load ptr, ptr %8, align 8, !tbaa !111
  %41 = getelementptr inbounds nuw %struct._match_case, ptr %40, i32 0, i32 0
  %42 = load ptr, ptr %41, align 8, !tbaa !113
  %43 = call ptr @ast2obj_pattern(ptr noundef %38, ptr noundef %39, ptr noundef %42)
  store ptr %43, ptr %10, align 8, !tbaa !13
  %44 = load ptr, ptr %10, align 8, !tbaa !13
  %45 = icmp ne ptr %44, null
  br i1 %45, label %47, label %46

46:                                               ; preds = %37
  br label %103

47:                                               ; preds = %37
  %48 = load ptr, ptr %9, align 8, !tbaa !13
  %49 = load ptr, ptr %5, align 8, !tbaa !9
  %50 = getelementptr inbounds nuw %struct.ast_state, ptr %49, i32 0, i32 217
  %51 = load ptr, ptr %50, align 8, !tbaa !350
  %52 = load ptr, ptr %10, align 8, !tbaa !13
  %53 = call i32 @PyObject_SetAttr(ptr noundef %48, ptr noundef %51, ptr noundef %52)
  %54 = icmp eq i32 %53, -1
  br i1 %54, label %55, label %56

55:                                               ; preds = %47
  br label %103

56:                                               ; preds = %47
  %57 = load ptr, ptr %10, align 8, !tbaa !13
  call void @Py_DECREF(ptr noundef %57)
  %58 = load ptr, ptr %5, align 8, !tbaa !9
  %59 = load ptr, ptr %6, align 8, !tbaa !147
  %60 = load ptr, ptr %8, align 8, !tbaa !111
  %61 = getelementptr inbounds nuw %struct._match_case, ptr %60, i32 0, i32 1
  %62 = load ptr, ptr %61, align 8, !tbaa !115
  %63 = call ptr @ast2obj_expr(ptr noundef %58, ptr noundef %59, ptr noundef %62)
  store ptr %63, ptr %10, align 8, !tbaa !13
  %64 = load ptr, ptr %10, align 8, !tbaa !13
  %65 = icmp ne ptr %64, null
  br i1 %65, label %67, label %66

66:                                               ; preds = %56
  br label %103

67:                                               ; preds = %56
  %68 = load ptr, ptr %9, align 8, !tbaa !13
  %69 = load ptr, ptr %5, align 8, !tbaa !9
  %70 = getelementptr inbounds nuw %struct.ast_state, ptr %69, i32 0, i32 184
  %71 = load ptr, ptr %70, align 8, !tbaa !348
  %72 = load ptr, ptr %10, align 8, !tbaa !13
  %73 = call i32 @PyObject_SetAttr(ptr noundef %68, ptr noundef %71, ptr noundef %72)
  %74 = icmp eq i32 %73, -1
  br i1 %74, label %75, label %76

75:                                               ; preds = %67
  br label %103

76:                                               ; preds = %67
  %77 = load ptr, ptr %10, align 8, !tbaa !13
  call void @Py_DECREF(ptr noundef %77)
  %78 = load ptr, ptr %5, align 8, !tbaa !9
  %79 = load ptr, ptr %6, align 8, !tbaa !147
  %80 = load ptr, ptr %8, align 8, !tbaa !111
  %81 = getelementptr inbounds nuw %struct._match_case, ptr %80, i32 0, i32 2
  %82 = load ptr, ptr %81, align 8, !tbaa !116
  %83 = call ptr @ast2obj_list(ptr noundef %78, ptr noundef %79, ptr noundef %82, ptr noundef @ast2obj_stmt)
  store ptr %83, ptr %10, align 8, !tbaa !13
  %84 = load ptr, ptr %10, align 8, !tbaa !13
  %85 = icmp ne ptr %84, null
  br i1 %85, label %87, label %86

86:                                               ; preds = %76
  br label %103

87:                                               ; preds = %76
  %88 = load ptr, ptr %9, align 8, !tbaa !13
  %89 = load ptr, ptr %5, align 8, !tbaa !9
  %90 = getelementptr inbounds nuw %struct.ast_state, ptr %89, i32 0, i32 156
  %91 = load ptr, ptr %90, align 8, !tbaa !152
  %92 = load ptr, ptr %10, align 8, !tbaa !13
  %93 = call i32 @PyObject_SetAttr(ptr noundef %88, ptr noundef %91, ptr noundef %92)
  %94 = icmp eq i32 %93, -1
  br i1 %94, label %95, label %96

95:                                               ; preds = %87
  br label %103

96:                                               ; preds = %87
  %97 = load ptr, ptr %10, align 8, !tbaa !13
  call void @Py_DECREF(ptr noundef %97)
  %98 = load ptr, ptr %6, align 8, !tbaa !147
  %99 = getelementptr inbounds nuw %struct.validator, ptr %98, i32 0, i32 0
  %100 = load i32, ptr %99, align 4, !tbaa !146
  %101 = add i32 %100, -1
  store i32 %101, ptr %99, align 4, !tbaa !146
  %102 = load ptr, ptr %9, align 8, !tbaa !13
  store ptr %102, ptr %4, align 8
  store i32 1, ptr %12, align 4
  br label %110

103:                                              ; preds = %95, %86, %75, %66, %55, %46
  %104 = load ptr, ptr %6, align 8, !tbaa !147
  %105 = getelementptr inbounds nuw %struct.validator, ptr %104, i32 0, i32 0
  %106 = load i32, ptr %105, align 4, !tbaa !146
  %107 = add i32 %106, -1
  store i32 %107, ptr %105, align 4, !tbaa !146
  %108 = load ptr, ptr %10, align 8, !tbaa !13
  call void @Py_XDECREF(ptr noundef %108)
  %109 = load ptr, ptr %9, align 8, !tbaa !13
  call void @Py_XDECREF(ptr noundef %109)
  store ptr null, ptr %4, align 8
  store i32 1, ptr %12, align 4
  br label %110

110:                                              ; preds = %103, %96, %36, %26, %16
  call void @llvm.lifetime.end.p0(i64 8, ptr %11) #8
  call void @llvm.lifetime.end.p0(i64 8, ptr %10) #8
  call void @llvm.lifetime.end.p0(i64 8, ptr %9) #8
  call void @llvm.lifetime.end.p0(i64 8, ptr %8) #8
  %111 = load ptr, ptr %4, align 8
  ret ptr %111
}