; Function Attrs: nounwind uwtable
define internal ptr @ast2obj_match_case(ptr noundef %0, ptr noundef %1, ptr noundef readonly %2) #0 {
  %.not = icmp eq ptr %2, null
  br i1 %.not, label %Py_XDECREF.exit60, label %4

4:                                                ; preds = %3
  %5 = load i32, ptr %1, align 4, !tbaa !111
  %6 = add i32 %5, 1
  store i32 %6, ptr %1, align 4, !tbaa !111
  %7 = getelementptr inbounds nuw i8, ptr %1, i64 4
  %8 = load i32, ptr %7, align 4, !tbaa !108
  %9 = icmp sgt i32 %6, %8
  br i1 %9, label %10, label %12

10:                                               ; preds = %4
  %11 = load ptr, ptr @PyExc_RecursionError, align 8, !tbaa !4
  tail call void @PyErr_SetString(ptr noundef %11, ptr noundef nonnull @.str.409) #8
  br label %Py_XDECREF.exit60

12:                                               ; preds = %4
  %13 = getelementptr inbounds nuw i8, ptr %0, i64 1632
  %14 = load ptr, ptr %13, align 8, !tbaa !257
  %15 = tail call ptr @PyType_GenericNew(ptr noundef %14, ptr noundef null, ptr noundef null) #8
  %.not45 = icmp eq ptr %15, null
  br i1 %.not45, label %Py_XDECREF.exit60, label %16

16:                                               ; preds = %12
  %17 = load ptr, ptr %2, align 8, !tbaa !78
  %18 = tail call ptr @ast2obj_pattern(ptr noundef nonnull %0, ptr noundef nonnull %1, ptr noundef %17)
  %.not46 = icmp eq ptr %18, null
  br i1 %.not46, label %.thread, label %19

19:                                               ; preds = %16
  %20 = getelementptr inbounds nuw i8, ptr %0, i64 1728
  %21 = load ptr, ptr %20, align 8, !tbaa !334
  %22 = tail call i32 @PyObject_SetAttr(ptr noundef nonnull %15, ptr noundef %21, ptr noundef nonnull %18) #8
  %23 = icmp eq i32 %22, -1
  br i1 %23, label %82, label %24

24:                                               ; preds = %19
  %25 = load i32, ptr %18, align 8, !tbaa !9
  %.not.i51 = icmp sgt i32 %25, -1
  br i1 %.not.i51, label %26, label %Py_DECREF.exit52

26:                                               ; preds = %24
  %27 = add nsw i32 %25, -1
  store i32 %27, ptr %18, align 8, !tbaa !9
  %28 = icmp eq i32 %27, 0
  br i1 %28, label %29, label %Py_DECREF.exit52

29:                                               ; preds = %26
  tail call void @_Py_Dealloc(ptr noundef nonnull %18) #8
  br label %Py_DECREF.exit52

Py_DECREF.exit52:                                 ; preds = %24, %26, %29
  %30 = getelementptr inbounds nuw i8, ptr %2, i64 8
  %31 = load ptr, ptr %30, align 8, !tbaa !81
  %32 = tail call ptr @ast2obj_expr(ptr noundef nonnull %0, ptr noundef nonnull %1, ptr noundef %31)
  %.not47 = icmp eq ptr %32, null
  br i1 %.not47, label %.thread, label %33

33:                                               ; preds = %Py_DECREF.exit52
  %34 = getelementptr inbounds nuw i8, ptr %0, i64 1464
  %35 = load ptr, ptr %34, align 8, !tbaa !306
  %36 = tail call i32 @PyObject_SetAttr(ptr noundef nonnull %15, ptr noundef %35, ptr noundef nonnull %32) #8
  %37 = icmp eq i32 %36, -1
  br i1 %37, label %82, label %38

38:                                               ; preds = %33
  %39 = load i32, ptr %32, align 8, !tbaa !9
  %.not.i49 = icmp sgt i32 %39, -1
  br i1 %.not.i49, label %40, label %Py_DECREF.exit50

40:                                               ; preds = %38
  %41 = add nsw i32 %39, -1
  store i32 %41, ptr %32, align 8, !tbaa !9
  %42 = icmp eq i32 %41, 0
  br i1 %42, label %43, label %Py_DECREF.exit50

43:                                               ; preds = %40
  tail call void @_Py_Dealloc(ptr noundef nonnull %32) #8
  br label %Py_DECREF.exit50

Py_DECREF.exit50:                                 ; preds = %38, %40, %43
  %44 = getelementptr inbounds nuw i8, ptr %2, i64 16
  %45 = load ptr, ptr %44, align 8, !tbaa !82
  %46 = icmp eq ptr %45, null
  br i1 %46, label %ast2obj_list.exit, label %47

47:                                               ; preds = %Py_DECREF.exit50
  %48 = load i64, ptr %45, align 8, !tbaa !113
  %49 = tail call ptr @PyList_New(i64 noundef %48) #8
  %.not.i55 = icmp eq ptr %49, null
  br i1 %.not.i55, label %.thread, label %.preheader.i

.preheader.i:                                     ; preds = %47
  %50 = icmp sgt i64 %48, 0
  br i1 %50, label %.lr.ph.i, label %ast2obj_list.exit.thread64

.lr.ph.i:                                         ; preds = %.preheader.i
  %51 = getelementptr inbounds nuw i8, ptr %45, i64 8
  %52 = getelementptr i8, ptr %49, i64 24
  br label %53

53:                                               ; preds = %64, %.lr.ph.i
  %.01823.i = phi i64 [ 0, %.lr.ph.i ], [ %66, %64 ]
  %54 = load ptr, ptr %51, align 8, !tbaa !115
  %55 = getelementptr ptr, ptr %54, i64 %.01823.i
  %56 = load ptr, ptr %55, align 8, !tbaa !116
  %57 = tail call ptr @ast2obj_stmt(ptr noundef nonnull %0, ptr noundef nonnull %1, ptr noundef %56) #8
  %.not22.i = icmp eq ptr %57, null
  br i1 %.not22.i, label %58, label %64

58:                                               ; preds = %53
  %59 = load i32, ptr %49, align 8, !tbaa !9
  %.not.i.i = icmp sgt i32 %59, -1
  br i1 %.not.i.i, label %60, label %.thread

60:                                               ; preds = %58
  %61 = add nsw i32 %59, -1
  store i32 %61, ptr %49, align 8, !tbaa !9
  %62 = icmp eq i32 %61, 0
  br i1 %62, label %63, label %.thread

63:                                               ; preds = %60
  tail call void @_Py_Dealloc(ptr noundef nonnull %49) #8
  br label %.thread

64:                                               ; preds = %53
  %.val.i = load ptr, ptr %52, align 8, !tbaa !117
  %65 = getelementptr ptr, ptr %.val.i, i64 %.01823.i
  store ptr %57, ptr %65, align 8, !tbaa !4
  %66 = add nuw nsw i64 %.01823.i, 1
  %exitcond.not.i = icmp eq i64 %66, %48
  br i1 %exitcond.not.i, label %ast2obj_list.exit.thread64, label %53, !llvm.loop !122

ast2obj_list.exit:                                ; preds = %Py_DECREF.exit50
  %67 = tail call ptr @PyList_New(i64 noundef 0) #8
  %.not48 = icmp eq ptr %67, null
  br i1 %.not48, label %.thread, label %ast2obj_list.exit.thread64

ast2obj_list.exit.thread64:                       ; preds = %64, %.preheader.i, %ast2obj_list.exit
  %.0.i67 = phi ptr [ %67, %ast2obj_list.exit ], [ %49, %.preheader.i ], [ %49, %64 ]
  %68 = getelementptr inbounds nuw i8, ptr %0, i64 1240
  %69 = load ptr, ptr %68, align 8, !tbaa !124
  %70 = tail call i32 @PyObject_SetAttr(ptr noundef nonnull %15, ptr noundef %69, ptr noundef nonnull %.0.i67) #8
  %71 = icmp eq i32 %70, -1
  br i1 %71, label %82, label %72

72:                                               ; preds = %ast2obj_list.exit.thread64
  %73 = load i32, ptr %.0.i67, align 8, !tbaa !9
  %.not.i = icmp sgt i32 %73, -1
  br i1 %.not.i, label %74, label %Py_DECREF.exit

74:                                               ; preds = %72
  %75 = add nsw i32 %73, -1
  store i32 %75, ptr %.0.i67, align 8, !tbaa !9
  %76 = icmp eq i32 %75, 0
  br i1 %76, label %77, label %Py_DECREF.exit

77:                                               ; preds = %74
  tail call void @_Py_Dealloc(ptr noundef nonnull %.0.i67) #8
  br label %Py_DECREF.exit

Py_DECREF.exit:                                   ; preds = %72, %74, %77
  %78 = load i32, ptr %1, align 4, !tbaa !111
  %79 = add i32 %78, -1
  store i32 %79, ptr %1, align 4, !tbaa !111
  br label %Py_XDECREF.exit60

.thread:                                          ; preds = %ast2obj_list.exit, %Py_DECREF.exit52, %16, %47, %58, %60, %63
  %80 = load i32, ptr %1, align 4, !tbaa !111
  %81 = add i32 %80, -1
  store i32 %81, ptr %1, align 4, !tbaa !111
  br label %Py_XDECREF.exit

82:                                               ; preds = %19, %33, %ast2obj_list.exit.thread64
  %.037 = phi ptr [ %18, %19 ], [ %32, %33 ], [ %.0.i67, %ast2obj_list.exit.thread64 ]
  %83 = load i32, ptr %1, align 4, !tbaa !111
  %84 = add i32 %83, -1
  store i32 %84, ptr %1, align 4, !tbaa !111
  %85 = load i32, ptr %.037, align 8, !tbaa !9
  %.not.i.i57 = icmp sgt i32 %85, -1
  br i1 %.not.i.i57, label %86, label %Py_XDECREF.exit

86:                                               ; preds = %82
  %87 = add nsw i32 %85, -1
  store i32 %87, ptr %.037, align 8, !tbaa !9
  %88 = icmp eq i32 %87, 0
  br i1 %88, label %89, label %Py_XDECREF.exit

89:                                               ; preds = %86
  tail call void @_Py_Dealloc(ptr noundef nonnull %.037) #8
  br label %Py_XDECREF.exit

Py_XDECREF.exit:                                  ; preds = %89, %86, %82, %.thread
  %90 = load i32, ptr %15, align 8, !tbaa !9
  %.not.i.i59 = icmp sgt i32 %90, -1
  br i1 %.not.i.i59, label %91, label %Py_XDECREF.exit60

91:                                               ; preds = %Py_XDECREF.exit
  %92 = add nsw i32 %90, -1
  store i32 %92, ptr %15, align 8, !tbaa !9
  %93 = icmp eq i32 %92, 0
  br i1 %93, label %94, label %Py_XDECREF.exit60

94:                                               ; preds = %91
  tail call void @_Py_Dealloc(ptr noundef nonnull %15) #8
  br label %Py_XDECREF.exit60

Py_XDECREF.exit60:                                ; preds = %94, %91, %Py_XDECREF.exit, %12, %3, %Py_DECREF.exit, %10
  %.0 = phi ptr [ null, %10 ], [ %15, %Py_DECREF.exit ], [ @_Py_NoneStruct, %3 ], [ null, %12 ], [ null, %Py_XDECREF.exit ], [ null, %91 ], [ null, %94 ]
  ret ptr %.0
}